target datalayout = "e-m:e-p270:32:32-p271:32:32-p272:64:64-i64:64-i128:128-f80:128-n8:16:32:64-S128"
target triple = "x86_64-pc-linux-gnu"

%"class.gmx::ColvarsSimulationsParameters" = type { ptr, %"class.std::unique_ptr", double, %struct.t_atoms, ptr, ptr, ptr }
%"class.std::unique_ptr" = type { %"struct.std::__uniq_ptr_data" }
%"struct.std::__uniq_ptr_data" = type { %"class.std::__uniq_ptr_impl" }
%"class.std::__uniq_ptr_impl" = type { %"class.std::tuple" }
%"class.std::tuple" = type { %"struct.std::_Tuple_impl" }
%"struct.std::_Tuple_impl" = type { %"struct.std::_Head_base.1" }
%"struct.std::_Head_base.1" = type { ptr }
%struct.t_atoms = type { i32, ptr, ptr, ptr, ptr, i32, ptr, ptr, i8, i8, i8, i8, i8 }
%class.anon = type { i8 }

@.str.1 = private unnamed_addr constant [161 x i8] c"generated/home/dtcxzyw/WorkSpace/Projects/compilers/llvm-opt-benchmark/bench/gromacs/gromacs/src/gromacs/applied_forces/colvars/colvarssimulationsparameters.cpp\00", align 1
@.str.5 = private unnamed_addr constant [8 x i8] c"logger_\00", align 1
@.str.6 = private unnamed_addr constant [49 x i8] c"Logger not set for ColvarsSimulationsParameters.\00", align 1
@"__PRETTY_FUNCTION__._ZZNK3gmx28ColvarsSimulationsParameters6loggerEvENK3$_0clEv" = private unnamed_addr constant [88 x i8] c"auto gmx::ColvarsSimulationsParameters::logger()::(anonymous class)::operator()() const\00", align 1

; Function Attrs: inlinehint mustprogress uwtable
define internal void @"_ZZNK3gmx28ColvarsSimulationsParameters6loggerEvENK3$_0clEv"(ptr noundef nonnull align 1 dereferenceable(1) %0) #2 align 2 {
  %2 = alloca ptr, align 8
  store ptr %0, ptr %2, align 8, !tbaa !158
  call void @_ZN3gmx8internal13assertHandlerEPKcS2_S2_S2_i(ptr noundef @.str.5, ptr noundef @.str.6, ptr noundef @"__PRETTY_FUNCTION__._ZZNK3gmx28ColvarsSimulationsParameters6loggerEvENK3$_0clEv", ptr noundef @.str.1, i32 noundef 136) #17
  unreachable
}

; Function Attrs: mustprogress uwtable
define noundef nonnull align 8 dereferenceable(40) ptr @_ZNK3gmx28ColvarsSimulationsParameters6loggerEv(ptr noundef nonnull align 8 dereferenceable(120) %0) #1 align 2 {
  %2 = alloca ptr, align 8
  %3 = alloca %class.anon, align 1
  store ptr %0, ptr %2, align 8, !tbaa !4
  %4 = load ptr, ptr %2, align 8
  %5 = getelementptr inbounds nuw %"class.gmx::ColvarsSimulationsParameters", ptr %4, i32 0, i32 6
  %6 = load ptr, ptr %5, align 8, !tbaa !190
  %7 = icmp ne ptr %6, null
  call void @llvm.lifetime.start.p0(i64 1, ptr %3) #16
  br i1 %7, label %8, label %9

8:                                                ; preds = %1
  br label %10

9:                                                ; preds = %1
  call void @"_ZZNK3gmx28ColvarsSimulationsParameters6loggerEvENK3$_0clEv"(ptr noundef nonnull align 1 dereferenceable(1) %3)
  br label %10

10:                                               ; preds = %9, %8
  call void @llvm.lifetime.end.p0(i64 1, ptr %3) #16
  %11 = getelementptr inbounds nuw %"class.gmx::ColvarsSimulationsParameters", ptr %4, i32 0, i32 6
  %12 = load ptr, ptr %11, align 8, !tbaa !190
  ret ptr %12
}