; Function Attrs: mustprogress uwtable
define noundef nonnull align 8 dereferenceable(40) ptr @_ZNK3gmx28ColvarsSimulationsParameters6loggerEv(ptr noundef nonnull readonly align 8 captures(none) dereferenceable(120) %0) local_unnamed_addr #1 align 2 {
  %2 = getelementptr inbounds nuw i8, ptr %0, i64 112
  %3 = load ptr, ptr %2, align 8, !tbaa !82
  %.not = icmp eq ptr %3, null
  br i1 %.not, label %4, label %5

4:                                                ; preds = %1
  tail call void @_ZN3gmx8internal13assertHandlerEPKcS2_S2_S2_i(ptr noundef nonnull @.str.5, ptr noundef nonnull @.str.6, ptr noundef nonnull @"__PRETTY_FUNCTION__._ZZNK3gmx28ColvarsSimulationsParameters6loggerEvENK3$_0clEv", ptr noundef nonnull @.str.1, i32 noundef 136) #20
  unreachable

5:                                                ; preds = %1
  ret ptr %3
}